target datalayout = "e-m:e-p270:32:32-p271:32:32-p272:64:64-i64:64-i128:128-f80:128-n8:16:32:64-S128"
target triple = "x86_64-pc-linux-gnu"

%"class.casadi::SXElem" = type { ptr }

@_ZN6casadi6SXElemC1Ed = unnamed_addr alias void (ptr, double), ptr @_ZN6casadi6SXElemC2Ed

; Function Attrs: mustprogress nounwind uwtable
define linkonce_odr hidden noundef double @_ZNSt14numeric_limitsIdE11round_errorEv() #4 comdat align 2 {
  ret double 5.000000e-01
}

; Function Attrs: mustprogress nounwind uwtable
define void @_ZNSt14numeric_limitsIN6casadi6SXElemEE11round_errorEv(ptr dead_on_unwind noalias writable sret(%"class.casadi::SXElem") align 8 %0) #4 align 2 personality ptr @__gxx_personality_v0 {
  %2 = alloca ptr, align 8
  store ptr %0, ptr %2, align 8
  %3 = call noundef double @_ZNSt14numeric_limitsIdE11round_errorEv() #3
  invoke void @_ZN6casadi6SXElemC1Ed(ptr noundef nonnull align 8 dereferenceable(8) %0, double noundef %3)
          to label %4 unwind label %5

4:                                                ; preds = %1
  ret void

5:                                                ; preds = %1
  %6 = landingpad { ptr, i32 }
          catch ptr null
  %7 = extractvalue { ptr, i32 } %6, 0
  call void @__clang_call_terminate(ptr %7) #18
  unreachable
}