; Function Attrs: mustprogress nounwind uwtable
define void @_ZNSt14numeric_limitsIN6casadi6SXElemEE11round_errorEv(ptr dead_on_unwind noalias writable sret(%"class.casadi::SXElem") align 8 %0) local_unnamed_addr #3 align 2 personality ptr @__gxx_personality_v0 {
  invoke void @_ZN6casadi6SXElemC1Ed(ptr noundef nonnull align 8 dereferenceable(8) %0, double noundef 5.000000e-01)
          to label %2 unwind label %3

2:                                                ; preds = %1
  ret void

3:                                                ; preds = %1
  %4 = landingpad { ptr, i32 }
          catch ptr null
  %5 = extractvalue { ptr, i32 } %4, 0
  tail call void @__clang_call_terminate(ptr %5) #27
  unreachable
}